target datalayout = "e-m:e-p270:32:32-p271:32:32-p272:64:64-i64:64-i128:128-f80:128-n8:16:32:64-S128"
target triple = "x86_64-unknown-linux-gnu"

%"class.google::protobuf::internal::SymbolBase" = type { i8 }
%"class.absl::lts_20230802::log_internal::NullStream" = type { i8 }
%"class.google::protobuf::Descriptor" = type { %"class.google::protobuf::internal::SymbolBase", i8, i16, i32, ptr, ptr, ptr, ptr, ptr, ptr, ptr, ptr, ptr, ptr, ptr, ptr, ptr, ptr, i32, i32, i32, i32, i32, i32, i32, i32 }
%"class.google::protobuf::FieldDescriptor" = type { %"class.google::protobuf::internal::SymbolBase", i8, i8, i8, i32, ptr, ptr, ptr, ptr, %union.anon.428, %union.anon.429, ptr, ptr, ptr, %union.anon.430 }
%union.anon.428 = type { ptr }
%union.anon.429 = type { ptr }
%union.anon.430 = type { i64 }
%"class.google::protobuf::OneofDescriptor" = type { %"class.google::protobuf::internal::SymbolBase", i32, ptr, ptr, ptr, ptr, ptr, ptr }

; Function Attrs: mustprogress nounwind uwtable
define linkonce_odr hidden noundef ptr @_ZNK6google8protobuf15OneofDescriptor5fieldEi(ptr noundef nonnull align 8 dereferenceable(56) %this, i32 noundef %index) #5 comdat align 2 {
entry:
  %this.addr = alloca ptr, align 8
  %index.addr = alloca i32, align 4
  %ref.tmp = alloca %"class.absl::lts_20230802::log_internal::NullStream", align 1
  %ref.tmp4 = alloca %"class.absl::lts_20230802::log_internal::NullStream", align 1
  store ptr %this, ptr %this.addr, align 8
  store i32 %index, ptr %index.addr, align 4
  %this1 = load ptr, ptr %this.addr, align 8
  br label %while.cond

while.cond:                                       ; preds = %while.body, %entry
  br i1 false, label %while.body, label %while.end

while.body:                                       ; preds = %while.cond
  %call = call noundef nonnull align 1 dereferenceable(1) ptr @_ZN4absl12lts_2023080212log_internal10NullStream14InternalStreamEv(ptr noundef nonnull align 1 dereferenceable(1) %ref.tmp)
  br label %while.cond, !llvm.loop !68

while.end:                                        ; preds = %while.cond
  br label %while.cond2

while.cond2:                                      ; preds = %while.body3, %while.end
  br i1 false, label %while.body3, label %while.end6

while.body3:                                      ; preds = %while.cond2
  %call5 = call noundef nonnull align 1 dereferenceable(1) ptr @_ZN4absl12lts_2023080212log_internal10NullStream14InternalStreamEv(ptr noundef nonnull align 1 dereferenceable(1) %ref.tmp4)
  br label %while.cond2, !llvm.loop !69

while.end6:                                       ; preds = %while.cond2
  %fields_ = getelementptr inbounds %"class.google::protobuf::OneofDescriptor", ptr %this1, i32 0, i32 7
  %0 = load ptr, ptr %fields_, align 8
  %1 = load i32, ptr %index.addr, align 4
  %idx.ext = sext i32 %1 to i64
  %add.ptr = getelementptr inbounds %"class.google::protobuf::FieldDescriptor", ptr %0, i64 %idx.ext
  ret ptr %add.ptr
}

; Function Attrs: mustprogress nounwind uwtable
define linkonce_odr hidden noundef i32 @_ZNK6google8protobuf15OneofDescriptor11field_countEv(ptr noundef nonnull align 8 dereferenceable(56) %this) #5 comdat align 2 {
entry:
  %this.addr = alloca ptr, align 8
  store ptr %this, ptr %this.addr, align 8
  %this1 = load ptr, ptr %this.addr, align 8
  %field_count_ = getelementptr inbounds %"class.google::protobuf::OneofDescriptor", ptr %this1, i32 0, i32 1
  %0 = load i32, ptr %field_count_, align 4
  ret i32 %0
}

; Function Attrs: mustprogress uwtable
define linkonce_odr hidden noundef zeroext i1 @_ZNK6google8protobuf15OneofDescriptor12is_syntheticEv(ptr noundef nonnull align 8 dereferenceable(56) %this) #4 comdat align 2 {
entry:
  %this.addr = alloca ptr, align 8
  store ptr %this, ptr %this.addr, align 8
  %this1 = load ptr, ptr %this.addr, align 8
  %call = call noundef i32 @_ZNK6google8protobuf15OneofDescriptor11field_countEv(ptr noundef nonnull align 8 dereferenceable(56) %this1)
  %cmp = icmp eq i32 %call, 1
  br i1 %cmp, label %land.rhs, label %land.end

land.rhs:                                         ; preds = %entry
  %call2 = call noundef ptr @_ZNK6google8protobuf15OneofDescriptor5fieldEi(ptr noundef nonnull align 8 dereferenceable(56) %this1, i32 noundef 0)
  %proto3_optional_ = getelementptr inbounds %"class.google::protobuf::FieldDescriptor", ptr %call2, i32 0, i32 1
  %bf.load = load i8, ptr %proto3_optional_, align 1
  %bf.lshr = lshr i8 %bf.load, 1
  %bf.clear = and i8 %bf.lshr, 1
  %bf.cast = trunc i8 %bf.clear to i1
  br label %land.end

land.end:                                         ; preds = %land.rhs, %entry
  %0 = phi i1 [ false, %entry ], [ %bf.cast, %land.rhs ]
  ret i1 %0
}

; Function Attrs: mustprogress nounwind uwtable
define linkonce_odr hidden noundef nonnull align 1 dereferenceable(1) ptr @_ZN4absl12lts_2023080212log_internal10NullStream14InternalStreamEv(ptr noundef nonnull align 1 dereferenceable(1) %this) #5 comdat align 2 {
entry:
  %this.addr = alloca ptr, align 8
  store ptr %this, ptr %this.addr, align 8
  %this1 = load ptr, ptr %this.addr, align 8
  ret ptr %this1
}

; Function Attrs: mustprogress nounwind uwtable
define linkonce_odr hidden noundef ptr @_ZNK6google8protobuf10Descriptor11nested_typeEi(ptr noundef nonnull align 8 dereferenceable(152) %this, i32 noundef %index) #5 comdat align 2 {
entry:
  %this.addr = alloca ptr, align 8
  %index.addr = alloca i32, align 4
  %ref.tmp = alloca %"class.absl::lts_20230802::log_internal::NullStream", align 1
  %ref.tmp4 = alloca %"class.absl::lts_20230802::log_internal::NullStream", align 1
  store ptr %this, ptr %this.addr, align 8
  store i32 %index, ptr %index.addr, align 4
  %this1 = load ptr, ptr %this.addr, align 8
  br label %while.cond

while.cond:                                       ; preds = %while.body, %entry
  br i1 false, label %while.body, label %while.end

while.body:                                       ; preds = %while.cond
  %call = call noundef nonnull align 1 dereferenceable(1) ptr @_ZN4absl12lts_2023080212log_internal10NullStream14InternalStreamEv(ptr noundef nonnull align 1 dereferenceable(1) %ref.tmp)
  br label %while.cond, !llvm.loop !66

while.end:                                        ; preds = %while.cond
  br label %while.cond2

while.cond2:                                      ; preds = %while.body3, %while.end
  br i1 false, label %while.body3, label %while.end6

while.body3:                                      ; preds = %while.cond2
  %call5 = call noundef nonnull align 1 dereferenceable(1) ptr @_ZN4absl12lts_2023080212log_internal10NullStream14InternalStreamEv(ptr noundef nonnull align 1 dereferenceable(1) %ref.tmp4)
  br label %while.cond2, !llvm.loop !67

while.end6:                                       ; preds = %while.cond2
  %nested_types_ = getelementptr inbounds %"class.google::protobuf::Descriptor", ptr %this1, i32 0, i32 12
  %0 = load ptr, ptr %nested_types_, align 8
  %1 = load i32, ptr %index.addr, align 4
  %idx.ext = sext i32 %1 to i64
  %add.ptr = getelementptr inbounds %"class.google::protobuf::Descriptor", ptr %0, i64 %idx.ext
  ret ptr %add.ptr
}

; Function Attrs: mustprogress nounwind uwtable
define linkonce_odr hidden noundef i32 @_ZNK6google8protobuf10Descriptor17nested_type_countEv(ptr noundef nonnull align 8 dereferenceable(152) %this) #5 comdat align 2 {
entry:
  %this.addr = alloca ptr, align 8
  store ptr %this, ptr %this.addr, align 8
  %this1 = load ptr, ptr %this.addr, align 8
  %nested_type_count_ = getelementptr inbounds %"class.google::protobuf::Descriptor", ptr %this1, i32 0, i32 20
  %0 = load i32, ptr %nested_type_count_, align 8
  ret i32 %0
}

; Function Attrs: mustprogress nounwind uwtable
define linkonce_odr hidden noundef ptr @_ZNK6google8protobuf15FieldDescriptor16containing_oneofEv(ptr noundef nonnull align 8 dereferenceable(88) %this) #5 comdat align 2 {
entry:
  %this.addr = alloca ptr, align 8
  store ptr %this, ptr %this.addr, align 8
  %this1 = load ptr, ptr %this.addr, align 8
  %is_oneof_ = getelementptr inbounds %"class.google::protobuf::FieldDescriptor", ptr %this1, i32 0, i32 1
  %bf.load = load i8, ptr %is_oneof_, align 1
  %bf.lshr = lshr i8 %bf.load, 4
  %bf.clear = and i8 %bf.lshr, 1
  %bf.cast = trunc i8 %bf.clear to i1
  br i1 %bf.cast, label %cond.true, label %cond.false

cond.true:                                        ; preds = %entry
  %scope_ = getelementptr inbounds %"class.google::protobuf::FieldDescriptor", ptr %this1, i32 0, i32 9
  %0 = load ptr, ptr %scope_, align 8
  br label %cond.end

cond.false:                                       ; preds = %entry
  br label %cond.end

cond.end:                                         ; preds = %cond.false, %cond.true
  %cond = phi ptr [ %0, %cond.true ], [ null, %cond.false ]
  ret ptr %cond
}

; Function Attrs: mustprogress uwtable
define linkonce_odr hidden noundef ptr @_ZNK6google8protobuf15FieldDescriptor21real_containing_oneofEv(ptr noundef nonnull align 8 dereferenceable(88) %this) #4 comdat align 2 {
entry:
  %this.addr = alloca ptr, align 8
  %oneof = alloca ptr, align 8
  store ptr %this, ptr %this.addr, align 8
  %this1 = load ptr, ptr %this.addr, align 8
  %call = call noundef ptr @_ZNK6google8protobuf15FieldDescriptor16containing_oneofEv(ptr noundef nonnull align 8 dereferenceable(88) %this1)
  store ptr %call, ptr %oneof, align 8
  %0 = load ptr, ptr %oneof, align 8
  %tobool = icmp ne ptr %0, null
  br i1 %tobool, label %land.lhs.true, label %cond.false

land.lhs.true:                                    ; preds = %entry
  %1 = load ptr, ptr %oneof, align 8
  %call2 = call noundef zeroext i1 @_ZNK6google8protobuf15OneofDescriptor12is_syntheticEv(ptr noundef nonnull align 8 dereferenceable(56) %1)
  br i1 %call2, label %cond.false, label %cond.true

cond.true:                                        ; preds = %land.lhs.true
  %2 = load ptr, ptr %oneof, align 8
  br label %cond.end

cond.false:                                       ; preds = %land.lhs.true, %entry
  br label %cond.end

cond.end:                                         ; preds = %cond.false, %cond.true
  %cond = phi ptr [ %2, %cond.true ], [ null, %cond.false ]
  ret ptr %cond
}

; Function Attrs: mustprogress nounwind uwtable
define linkonce_odr hidden noundef ptr @_ZNK6google8protobuf10Descriptor5fieldEi(ptr noundef nonnull align 8 dereferenceable(152) %this, i32 noundef %index) #5 comdat align 2 {
entry:
  %this.addr = alloca ptr, align 8
  %index.addr = alloca i32, align 4
  %ref.tmp = alloca %"class.absl::lts_20230802::log_internal::NullStream", align 1
  %ref.tmp4 = alloca %"class.absl::lts_20230802::log_internal::NullStream", align 1
  store ptr %this, ptr %this.addr, align 8
  store i32 %index, ptr %index.addr, align 4
  %this1 = load ptr, ptr %this.addr, align 8
  br label %while.cond

while.cond:                                       ; preds = %while.body, %entry
  br i1 false, label %while.body, label %while.end

while.body:                                       ; preds = %while.cond
  %call = call noundef nonnull align 1 dereferenceable(1) ptr @_ZN4absl12lts_2023080212log_internal10NullStream14InternalStreamEv(ptr noundef nonnull align 1 dereferenceable(1) %ref.tmp)
  br label %while.cond, !llvm.loop !64

while.end:                                        ; preds = %while.cond
  br label %while.cond2

while.cond2:                                      ; preds = %while.body3, %while.end
  br i1 false, label %while.body3, label %while.end6

while.body3:                                      ; preds = %while.cond2
  %call5 = call noundef nonnull align 1 dereferenceable(1) ptr @_ZN4absl12lts_2023080212log_internal10NullStream14InternalStreamEv(ptr noundef nonnull align 1 dereferenceable(1) %ref.tmp4)
  br label %while.cond2, !llvm.loop !65

while.end6:                                       ; preds = %while.cond2
  %fields_ = getelementptr inbounds %"class.google::protobuf::Descriptor", ptr %this1, i32 0, i32 10
  %0 = load ptr, ptr %fields_, align 8
  %1 = load i32, ptr %index.addr, align 4
  %idx.ext = sext i32 %1 to i64
  %add.ptr = getelementptr inbounds %"class.google::protobuf::FieldDescriptor", ptr %0, i64 %idx.ext
  ret ptr %add.ptr
}

; Function Attrs: mustprogress nounwind uwtable
define linkonce_odr hidden noundef i32 @_ZNK6google8protobuf10Descriptor11field_countEv(ptr noundef nonnull align 8 dereferenceable(152) %this) #5 comdat align 2 {
entry:
  %this.addr = alloca ptr, align 8
  store ptr %this, ptr %this.addr, align 8
  %this1 = load ptr, ptr %this.addr, align 8
  %field_count_ = getelementptr inbounds %"class.google::protobuf::Descriptor", ptr %this1, i32 0, i32 3
  %0 = load i32, ptr %field_count_, align 4
  ret i32 %0
}

; Function Attrs: mustprogress uwtable
define internal noundef zeroext i1 @_ZN6google8protobuf8compiler12_GLOBAL__N_122ContainsProto3OptionalEPKNS0_10DescriptorE(ptr noundef %desc) #4 {
entry:
  %retval = alloca i1, align 1
  %desc.addr = alloca ptr, align 8
  %i = alloca i32, align 4
  %i7 = alloca i32, align 4
  store ptr %desc, ptr %desc.addr, align 8
  store i32 0, ptr %i, align 4
  br label %for.cond

for.cond:                                         ; preds = %for.inc, %entry
  %0 = load i32, ptr %i, align 4
  %1 = load ptr, ptr %desc.addr, align 8
  %call = call noundef i32 @_ZNK6google8protobuf10Descriptor11field_countEv(ptr noundef nonnull align 8 dereferenceable(152) %1)
  %cmp = icmp slt i32 %0, %call
  br i1 %cmp, label %for.body, label %for.end

for.body:                                         ; preds = %for.cond
  %2 = load ptr, ptr %desc.addr, align 8
  %3 = load i32, ptr %i, align 4
  %call1 = call noundef ptr @_ZNK6google8protobuf10Descriptor5fieldEi(ptr noundef nonnull align 8 dereferenceable(152) %2, i32 noundef %3)
  %call2 = call noundef ptr @_ZNK6google8protobuf15FieldDescriptor21real_containing_oneofEv(ptr noundef nonnull align 8 dereferenceable(88) %call1)
  %cmp3 = icmp eq ptr %call2, null
  br i1 %cmp3, label %land.lhs.true, label %if.end

land.lhs.true:                                    ; preds = %for.body
  %4 = load ptr, ptr %desc.addr, align 8
  %5 = load i32, ptr %i, align 4
  %call4 = call noundef ptr @_ZNK6google8protobuf10Descriptor5fieldEi(ptr noundef nonnull align 8 dereferenceable(152) %4, i32 noundef %5)
  %call5 = call noundef ptr @_ZNK6google8protobuf15FieldDescriptor16containing_oneofEv(ptr noundef nonnull align 8 dereferenceable(88) %call4)
  %cmp6 = icmp ne ptr %call5, null
  br i1 %cmp6, label %if.then, label %if.end

if.then:                                          ; preds = %land.lhs.true
  store i1 true, ptr %retval, align 1
  br label %return

if.end:                                           ; preds = %land.lhs.true, %for.body
  br label %for.inc

for.inc:                                          ; preds = %if.end
  %6 = load i32, ptr %i, align 4
  %inc = add nsw i32 %6, 1
  store i32 %inc, ptr %i, align 4
  br label %for.cond, !llvm.loop !62

for.end:                                          ; preds = %for.cond
  store i32 0, ptr %i7, align 4
  br label %for.cond8

for.cond8:                                        ; preds = %for.inc16, %for.end
  %7 = load i32, ptr %i7, align 4
  %8 = load ptr, ptr %desc.addr, align 8
  %call9 = call noundef i32 @_ZNK6google8protobuf10Descriptor17nested_type_countEv(ptr noundef nonnull align 8 dereferenceable(152) %8)
  %cmp10 = icmp slt i32 %7, %call9
  br i1 %cmp10, label %for.body11, label %for.end18

for.body11:                                       ; preds = %for.cond8
  %9 = load ptr, ptr %desc.addr, align 8
  %10 = load i32, ptr %i7, align 4
  %call12 = call noundef ptr @_ZNK6google8protobuf10Descriptor11nested_typeEi(ptr noundef nonnull align 8 dereferenceable(152) %9, i32 noundef %10)
  %call13 = call noundef zeroext i1 @_ZN6google8protobuf8compiler12_GLOBAL__N_122ContainsProto3OptionalEPKNS0_10DescriptorE(ptr noundef %call12)
  br i1 %call13, label %if.then14, label %if.end15

if.then14:                                        ; preds = %for.body11
  store i1 true, ptr %retval, align 1
  br label %return

if.end15:                                         ; preds = %for.body11
  br label %for.inc16

for.inc16:                                        ; preds = %if.end15
  %11 = load i32, ptr %i7, align 4
  %inc17 = add nsw i32 %11, 1
  store i32 %inc17, ptr %i7, align 4
  br label %for.cond8, !llvm.loop !63

for.end18:                                        ; preds = %for.cond8
  store i1 false, ptr %retval, align 1
  br label %return

return:                                           ; preds = %for.end18, %if.then14, %if.then
  %12 = load i1, ptr %retval, align 1
  ret i1 %12
}