; Function Attrs: mustprogress nofree nosync nounwind willreturn memory(read, inaccessiblemem: none) uwtable
define internal fastcc noundef zeroext i1 @_ZN6google8protobuf8compiler12_GLOBAL__N_122ContainsProto3OptionalEPKNS0_10DescriptorE(ptr nocapture noundef readonly %desc) unnamed_addr #22 {
entry:
  %field_count_.i = getelementptr inbounds i8, ptr %desc, i64 4
  %0 = load i32, ptr %field_count_.i, align 4
  %cmp21 = icmp sgt i32 %0, 0
  br i1 %cmp21, label %for.body.lr.ph, label %for.cond8.preheader

for.body.lr.ph:                                   ; preds = %entry
  %fields_.i = getelementptr inbounds i8, ptr %desc, i64 56
  %1 = load ptr, ptr %fields_.i, align 8
  %wide.trip.count = zext nneg i32 %0 to i64
  br label %for.body

for.cond8.preheader:                              ; preds = %for.inc, %entry
  %nested_type_count_.i = getelementptr inbounds i8, ptr %desc, i64 128
  %2 = load i32, ptr %nested_type_count_.i, align 8
  %cmp1023 = icmp sgt i32 %2, 0
  br i1 %cmp1023, label %for.body11.lr.ph, label %return

for.body11.lr.ph:                                 ; preds = %for.cond8.preheader
  %nested_types_.i = getelementptr inbounds i8, ptr %desc, i64 72
  %3 = load ptr, ptr %nested_types_.i, align 8
  %wide.trip.count31 = zext nneg i32 %2 to i64
  br label %for.body11

for.body:                                         ; preds = %for.body.lr.ph, %for.inc
  %indvars.iv = phi i64 [ 0, %for.body.lr.ph ], [ %indvars.iv.next, %for.inc ]
  %add.ptr.i = getelementptr inbounds %"class.google::protobuf::FieldDescriptor", ptr %1, i64 %indvars.iv
  %is_oneof_.i.i = getelementptr inbounds i8, ptr %add.ptr.i, i64 1
  %bf.load.i.i = load i8, ptr %is_oneof_.i.i, align 1
  %4 = and i8 %bf.load.i.i, 16
  %bf.cast.not.i.i = icmp eq i8 %4, 0
  %scope_.i.i = getelementptr inbounds i8, ptr %add.ptr.i, i64 40
  %5 = load ptr, ptr %scope_.i.i, align 8
  %tobool.not5.i = icmp eq ptr %5, null
  %tobool.not.i = select i1 %bf.cast.not.i.i, i1 true, i1 %tobool.not5.i
  br i1 %tobool.not.i, label %for.inc, label %land.lhs.true.i

land.lhs.true.i:                                  ; preds = %for.body
  %field_count_.i.i.i = getelementptr inbounds i8, ptr %5, i64 4
  %6 = load i32, ptr %field_count_.i.i.i, align 4
  %cmp.i.i = icmp eq i32 %6, 1
  br i1 %cmp.i.i, label %_ZNK6google8protobuf15OneofDescriptor12is_syntheticEv.exit.i, label %for.inc

_ZNK6google8protobuf15OneofDescriptor12is_syntheticEv.exit.i: ; preds = %land.lhs.true.i
  %fields_.i.i.i = getelementptr inbounds i8, ptr %5, i64 48
  %7 = load ptr, ptr %fields_.i.i.i, align 8
  %proto3_optional_.i.i = getelementptr inbounds i8, ptr %7, i64 1
  %bf.load.i3.i = load i8, ptr %proto3_optional_.i.i, align 1
  %bf.load.i3.fr.i = freeze i8 %bf.load.i3.i
  %8 = and i8 %bf.load.i3.fr.i, 2
  %bf.cast.i.not.i = icmp eq i8 %8, 0
  br i1 %bf.cast.i.not.i, label %for.inc, label %return

for.inc:                                          ; preds = %for.body, %_ZNK6google8protobuf15OneofDescriptor12is_syntheticEv.exit.i, %land.lhs.true.i
  %indvars.iv.next = add nuw nsw i64 %indvars.iv, 1
  %exitcond.not = icmp eq i64 %indvars.iv.next, %wide.trip.count
  br i1 %exitcond.not, label %for.cond8.preheader, label %for.body, !llvm.loop !272

for.body11:                                       ; preds = %for.body11, %for.body11.lr.ph
  %indvars.iv28 = phi i64 [ 0, %for.body11.lr.ph ], [ %indvars.iv.next29, %for.body11 ]
  %add.ptr.i15 = getelementptr inbounds %"class.google::protobuf::Descriptor", ptr %3, i64 %indvars.iv28
  %call13 = tail call fastcc noundef zeroext i1 @_ZN6google8protobuf8compiler12_GLOBAL__N_122ContainsProto3OptionalEPKNS0_10DescriptorE(ptr noundef %add.ptr.i15)
  %indvars.iv.next29 = add nuw nsw i64 %indvars.iv28, 1
  %exitcond32.not = icmp eq i64 %indvars.iv.next29, %wide.trip.count31
  %or.cond = select i1 %call13, i1 true, i1 %exitcond32.not
  br i1 %or.cond, label %return, label %for.body11, !llvm.loop !273

return:                                           ; preds = %_ZNK6google8protobuf15OneofDescriptor12is_syntheticEv.exit.i, %for.body11, %for.cond8.preheader
  %retval.0 = phi i1 [ false, %for.cond8.preheader ], [ %call13, %for.body11 ], [ true, %_ZNK6google8protobuf15OneofDescriptor12is_syntheticEv.exit.i ]
  ret i1 %retval.0
}